target datalayout = "e-m:e-p270:32:32-p271:32:32-p272:64:64-i64:64-i128:128-f80:128-n8:16:32:64-S128"
target triple = "x86_64-pc-linux-gnu"

%"struct.ZXing::PointT" = type { i32, i32 }
%"class.ZXing::Trit" = type { i8 }
%"class.ZXing::Matrix" = type { i32, i32, %"class.std::vector" }
%"class.std::vector" = type { %"struct.std::_Vector_base" }
%"struct.std::_Vector_base" = type { %"struct.std::_Vector_base<ZXing::Trit, std::allocator<ZXing::Trit>>::_Vector_impl" }
%"struct.std::_Vector_base<ZXing::Trit, std::allocator<ZXing::Trit>>::_Vector_impl" = type { %"struct.std::_Vector_base<ZXing::Trit, std::allocator<ZXing::Trit>>::_Vector_impl_data" }
%"struct.std::_Vector_base<ZXing::Trit, std::allocator<ZXing::Trit>>::_Vector_impl_data" = type { ptr, ptr, ptr }
%class.anon = type { ptr }

; Function Attrs: mustprogress nounwind uwtable
define linkonce_odr noundef nonnull align 1 dereferenceable(1) ptr @_ZNSt6vectorIN5ZXing4TritESaIS1_EEixEm(ptr noundef nonnull align 8 dereferenceable(24) %0, i64 noundef %1) #2 comdat align 2 {
  %3 = alloca ptr, align 8
  %4 = alloca i64, align 8
  store ptr %0, ptr %3, align 8
  store i64 %1, ptr %4, align 8
  %5 = load ptr, ptr %3, align 8
  %6 = getelementptr inbounds %"struct.std::_Vector_base", ptr %5, i32 0, i32 0
  %7 = getelementptr inbounds %"struct.std::_Vector_base<ZXing::Trit, std::allocator<ZXing::Trit>>::_Vector_impl_data", ptr %6, i32 0, i32 0
  %8 = load ptr, ptr %7, align 8
  %9 = load i64, ptr %4, align 8
  %10 = getelementptr inbounds %"class.ZXing::Trit", ptr %8, i64 %9
  ret ptr %10
}

; Function Attrs: mustprogress nounwind uwtable
define linkonce_odr noundef i32 @_ZNK5ZXing6MatrixINS_4TritEE6heightEv(ptr noundef nonnull align 8 dereferenceable(32) %0) #2 comdat align 2 {
  %2 = alloca ptr, align 8
  store ptr %0, ptr %2, align 8
  %3 = load ptr, ptr %2, align 8
  %4 = getelementptr inbounds %"class.ZXing::Matrix", ptr %3, i32 0, i32 1
  %5 = load i32, ptr %4, align 4
  ret i32 %5
}

; Function Attrs: mustprogress nounwind uwtable
define linkonce_odr noundef i32 @_ZNK5ZXing6MatrixINS_4TritEE5widthEv(ptr noundef nonnull align 8 dereferenceable(32) %0) #2 comdat align 2 {
  %2 = alloca ptr, align 8
  store ptr %0, ptr %2, align 8
  %3 = load ptr, ptr %2, align 8
  %4 = getelementptr inbounds %"class.ZXing::Matrix", ptr %3, i32 0, i32 0
  %5 = load i32, ptr %4, align 8
  ret i32 %5
}

; Function Attrs: mustprogress nounwind uwtable
define linkonce_odr noundef nonnull align 1 dereferenceable(1) ptr @_ZN5ZXing6MatrixINS_4TritEEclEii(ptr noundef nonnull align 8 dereferenceable(32) %0, i32 noundef %1, i32 noundef %2) #2 comdat align 2 {
  %4 = alloca ptr, align 8
  %5 = alloca i32, align 4
  %6 = alloca i32, align 4
  store ptr %0, ptr %4, align 8
  store i32 %1, ptr %5, align 4
  store i32 %2, ptr %6, align 4
  %7 = load ptr, ptr %4, align 8
  %8 = getelementptr inbounds %"class.ZXing::Matrix", ptr %7, i32 0, i32 2
  %9 = load i32, ptr %6, align 4
  %10 = getelementptr inbounds %"class.ZXing::Matrix", ptr %7, i32 0, i32 0
  %11 = load i32, ptr %10, align 8
  %12 = mul nsw i32 %9, %11
  %13 = load i32, ptr %5, align 4
  %14 = add nsw i32 %12, %13
  %15 = sext i32 %14 to i64
  %16 = call noundef nonnull align 1 dereferenceable(1) ptr @_ZNSt6vectorIN5ZXing4TritESaIS1_EEixEm(ptr noundef nonnull align 8 dereferenceable(24) %8, i64 noundef %15) #11
  ret ptr %16
}

; Function Attrs: mustprogress nounwind uwtable
define linkonce_odr noundef nonnull align 4 dereferenceable(4) ptr @_ZSt3maxIiERKT_S2_S2_(ptr noundef nonnull align 4 dereferenceable(4) %0, ptr noundef nonnull align 4 dereferenceable(4) %1) #2 comdat {
  %3 = alloca ptr, align 8
  %4 = alloca ptr, align 8
  %5 = alloca ptr, align 8
  store ptr %0, ptr %4, align 8
  store ptr %1, ptr %5, align 8
  %6 = load ptr, ptr %4, align 8
  %7 = load i32, ptr %6, align 4
  %8 = load ptr, ptr %5, align 8
  %9 = load i32, ptr %8, align 4
  %10 = icmp slt i32 %7, %9
  br i1 %10, label %11, label %13

11:                                               ; preds = %2
  %12 = load ptr, ptr %5, align 8
  store ptr %12, ptr %3, align 8
  br label %15

13:                                               ; preds = %2
  %14 = load ptr, ptr %4, align 8
  store ptr %14, ptr %3, align 8
  br label %15

15:                                               ; preds = %13, %11
  %16 = load ptr, ptr %3, align 8
  ret ptr %16
}

; Function Attrs: mustprogress uwtable
define internal void @"_ZZN5ZXing6QRCodeL29EmbedPositionDetectionPatternEiiRNS_6MatrixINS_4TritEEEENK3$_0clEii"(ptr noundef nonnull align 8 dereferenceable(8) %0, i32 noundef %1, i32 noundef %2) #0 align 2 {
  %4 = alloca ptr, align 8
  %5 = alloca i32, align 4
  %6 = alloca i32, align 4
  %7 = alloca %"class.ZXing::Trit", align 1
  store ptr %0, ptr %4, align 8
  store i32 %1, ptr %5, align 4
  store i32 %2, ptr %6, align 4
  %8 = load ptr, ptr %4, align 8
  %9 = load i32, ptr %5, align 4
  %10 = icmp sge i32 %9, 0
  br i1 %10, label %11, label %34

11:                                               ; preds = %3
  %12 = load i32, ptr %5, align 4
  %13 = getelementptr inbounds %class.anon, ptr %8, i32 0, i32 0
  %14 = load ptr, ptr %13, align 8
  %15 = call noundef i32 @_ZNK5ZXing6MatrixINS_4TritEE5widthEv(ptr noundef nonnull align 8 dereferenceable(32) %14)
  %16 = icmp slt i32 %12, %15
  br i1 %16, label %17, label %34

17:                                               ; preds = %11
  %18 = load i32, ptr %6, align 4
  %19 = icmp sge i32 %18, 0
  br i1 %19, label %20, label %34

20:                                               ; preds = %17
  %21 = load i32, ptr %6, align 4
  %22 = getelementptr inbounds %class.anon, ptr %8, i32 0, i32 0
  %23 = load ptr, ptr %22, align 8
  %24 = call noundef i32 @_ZNK5ZXing6MatrixINS_4TritEE6heightEv(ptr noundef nonnull align 8 dereferenceable(32) %23)
  %25 = icmp slt i32 %21, %24
  br i1 %25, label %26, label %34

26:                                               ; preds = %20
  %27 = getelementptr inbounds %class.anon, ptr %8, i32 0, i32 0
  %28 = load ptr, ptr %27, align 8
  %29 = load i32, ptr %5, align 4
  %30 = load i32, ptr %6, align 4
  call void @_ZN5ZXing4TritC2Eb(ptr noundef nonnull align 1 dereferenceable(1) %7, i1 noundef zeroext false)
  %31 = getelementptr inbounds %"class.ZXing::Trit", ptr %7, i32 0, i32 0
  %32 = load i8, ptr %31, align 1
  %33 = call noundef nonnull align 1 dereferenceable(1) ptr @_ZN5ZXing6MatrixINS_4TritEE3setEiiS1_(ptr noundef nonnull align 8 dereferenceable(32) %28, i32 noundef %29, i32 noundef %30, i8 %32)
  br label %34

34:                                               ; preds = %26, %20, %17, %11, %3
  ret void
}

; Function Attrs: mustprogress uwtable
define linkonce_odr noundef nonnull align 1 dereferenceable(1) ptr @_ZN5ZXing6MatrixINS_4TritEE3setEiiS1_(ptr noundef nonnull align 8 dereferenceable(32) %0, i32 noundef %1, i32 noundef %2, i8 %3) #0 comdat align 2 {
  %5 = alloca %"class.ZXing::Trit", align 1
  %6 = alloca ptr, align 8
  %7 = alloca i32, align 4
  %8 = alloca i32, align 4
  %9 = getelementptr inbounds %"class.ZXing::Trit", ptr %5, i32 0, i32 0
  store i8 %3, ptr %9, align 1
  store ptr %0, ptr %6, align 8
  store i32 %1, ptr %7, align 4
  store i32 %2, ptr %8, align 4
  %10 = load ptr, ptr %6, align 8
  %11 = load i32, ptr %7, align 4
  %12 = load i32, ptr %8, align 4
  %13 = call noundef nonnull align 1 dereferenceable(1) ptr @_ZN5ZXing6MatrixINS_4TritEEclEii(ptr noundef nonnull align 8 dereferenceable(32) %10, i32 noundef %11, i32 noundef %12)
  call void @llvm.memcpy.p0.p0.i64(ptr align 1 %13, ptr align 1 %5, i64 1, i1 false)
  ret ptr %13
}

; Function Attrs: mustprogress nounwind uwtable
define linkonce_odr void @_ZN5ZXing4TritC2Eb(ptr noundef nonnull align 1 dereferenceable(1) %0, i1 noundef zeroext %1) unnamed_addr #2 comdat align 2 {
  %3 = alloca ptr, align 8
  %4 = alloca i8, align 1
  store ptr %0, ptr %3, align 8
  %5 = zext i1 %1 to i8
  store i8 %5, ptr %4, align 1
  %6 = load ptr, ptr %3, align 8
  %7 = getelementptr inbounds %"class.ZXing::Trit", ptr %6, i32 0, i32 0
  %8 = load i8, ptr %4, align 1
  %9 = trunc i8 %8 to i1
  %10 = zext i1 %9 to i8
  store i8 %10, ptr %7, align 1
  ret void
}

; Function Attrs: mustprogress uwtable
define linkonce_odr noundef i32 @_ZN5ZXing15maxAbsComponentIiEET_NS_6PointTIS1_EE(i64 %0) #0 comdat {
  %2 = alloca %"struct.ZXing::PointT", align 4
  %3 = alloca i32, align 4
  %4 = alloca i32, align 4
  store i64 %0, ptr %2, align 4
  %5 = getelementptr inbounds %"struct.ZXing::PointT", ptr %2, i32 0, i32 0
  %6 = load i32, ptr %5, align 4
  %7 = call i32 @llvm.abs.i32(i32 %6, i1 true)
  store i32 %7, ptr %3, align 4
  %8 = getelementptr inbounds %"struct.ZXing::PointT", ptr %2, i32 0, i32 1
  %9 = load i32, ptr %8, align 4
  %10 = call i32 @llvm.abs.i32(i32 %9, i1 true)
  store i32 %10, ptr %4, align 4
  %11 = call noundef nonnull align 4 dereferenceable(4) ptr @_ZSt3maxIiERKT_S2_S2_(ptr noundef nonnull align 4 dereferenceable(4) %3, ptr noundef nonnull align 4 dereferenceable(4) %4)
  %12 = load i32, ptr %11, align 4
  ret i32 %12
}

; Function Attrs: mustprogress uwtable
define linkonce_odr i64 @_ZN5ZXingmiIiiEENS_6PointTIDTmidtfp_1xdtfp0_1xEEERKNS1_IT_EERKNS1_IT0_EE(ptr noundef nonnull align 4 dereferenceable(8) %0, ptr noundef nonnull align 4 dereferenceable(8) %1) #0 comdat {
  %3 = alloca %"struct.ZXing::PointT", align 4
  %4 = alloca ptr, align 8
  %5 = alloca ptr, align 8
  store ptr %0, ptr %4, align 8
  store ptr %1, ptr %5, align 8
  %6 = load ptr, ptr %4, align 8
  %7 = getelementptr inbounds %"struct.ZXing::PointT", ptr %6, i32 0, i32 0
  %8 = load i32, ptr %7, align 4
  %9 = load ptr, ptr %5, align 8
  %10 = getelementptr inbounds %"struct.ZXing::PointT", ptr %9, i32 0, i32 0
  %11 = load i32, ptr %10, align 4
  %12 = sub nsw i32 %8, %11
  %13 = load ptr, ptr %4, align 8
  %14 = getelementptr inbounds %"struct.ZXing::PointT", ptr %13, i32 0, i32 1
  %15 = load i32, ptr %14, align 4
  %16 = load ptr, ptr %5, align 8
  %17 = getelementptr inbounds %"struct.ZXing::PointT", ptr %16, i32 0, i32 1
  %18 = load i32, ptr %17, align 4
  %19 = sub nsw i32 %15, %18
  call void @_ZN5ZXing6PointTIiEC2Eii(ptr noundef nonnull align 4 dereferenceable(8) %3, i32 noundef %12, i32 noundef %19)
  %20 = load i64, ptr %3, align 4
  ret i64 %20
}

; Function Attrs: mustprogress nounwind uwtable
define linkonce_odr void @_ZN5ZXing6PointTIiEC2Eii(ptr noundef nonnull align 4 dereferenceable(8) %0, i32 noundef %1, i32 noundef %2) unnamed_addr #2 comdat align 2 {
  %4 = alloca ptr, align 8
  %5 = alloca i32, align 4
  %6 = alloca i32, align 4
  store ptr %0, ptr %4, align 8
  store i32 %1, ptr %5, align 4
  store i32 %2, ptr %6, align 4
  %7 = load ptr, ptr %4, align 8
  %8 = getelementptr inbounds %"struct.ZXing::PointT", ptr %7, i32 0, i32 0
  %9 = load i32, ptr %5, align 4
  store i32 %9, ptr %8, align 4
  %10 = getelementptr inbounds %"struct.ZXing::PointT", ptr %7, i32 0, i32 1
  %11 = load i32, ptr %6, align 4
  store i32 %11, ptr %10, align 4
  ret void
}

; Function Attrs: mustprogress uwtable
define internal void @_ZN5ZXing6QRCodeL29EmbedPositionDetectionPatternEiiRNS_6MatrixINS_4TritEEE(i32 noundef %0, i32 noundef %1, ptr noundef nonnull align 8 dereferenceable(32) %2) #0 {
  %4 = alloca i32, align 4
  %5 = alloca i32, align 4
  %6 = alloca ptr, align 8
  %7 = alloca i32, align 4
  %8 = alloca i32, align 4
  %9 = alloca %"class.ZXing::Trit", align 1
  %10 = alloca %"struct.ZXing::PointT", align 4
  %11 = alloca %"struct.ZXing::PointT", align 4
  %12 = alloca %"struct.ZXing::PointT", align 4
  %13 = alloca %class.anon, align 8
  %14 = alloca i32, align 4
  store i32 %0, ptr %4, align 4
  store i32 %1, ptr %5, align 4
  store ptr %2, ptr %6, align 8
  store i32 0, ptr %7, align 4
  br label %15

15:                                               ; preds = %43, %3
  %16 = load i32, ptr %7, align 4
  %17 = icmp slt i32 %16, 7
  br i1 %17, label %18, label %46

18:                                               ; preds = %15
  store i32 0, ptr %8, align 4
  br label %19

19:                                               ; preds = %39, %18
  %20 = load i32, ptr %8, align 4
  %21 = icmp slt i32 %20, 7
  br i1 %21, label %22, label %42

22:                                               ; preds = %19
  %23 = load ptr, ptr %6, align 8
  %24 = load i32, ptr %4, align 4
  %25 = load i32, ptr %8, align 4
  %26 = add nsw i32 %24, %25
  %27 = load i32, ptr %5, align 4
  %28 = load i32, ptr %7, align 4
  %29 = add nsw i32 %27, %28
  %30 = load i32, ptr %8, align 4
  %31 = load i32, ptr %7, align 4
  call void @_ZN5ZXing6PointTIiEC2Eii(ptr noundef nonnull align 4 dereferenceable(8) %11, i32 noundef %30, i32 noundef %31)
  call void @_ZN5ZXing6PointTIiEC2Eii(ptr noundef nonnull align 4 dereferenceable(8) %12, i32 noundef 3, i32 noundef 3)
  %32 = call i64 @_ZN5ZXingmiIiiEENS_6PointTIDTmidtfp_1xdtfp0_1xEEERKNS1_IT_EERKNS1_IT0_EE(ptr noundef nonnull align 4 dereferenceable(8) %11, ptr noundef nonnull align 4 dereferenceable(8) %12)
  store i64 %32, ptr %10, align 4
  %33 = load i64, ptr %10, align 4
  %34 = call noundef i32 @_ZN5ZXing15maxAbsComponentIiEET_NS_6PointTIS1_EE(i64 %33)
  %35 = icmp ne i32 %34, 2
  call void @_ZN5ZXing4TritC2Eb(ptr noundef nonnull align 1 dereferenceable(1) %9, i1 noundef zeroext %35)
  %36 = getelementptr inbounds %"class.ZXing::Trit", ptr %9, i32 0, i32 0
  %37 = load i8, ptr %36, align 1
  %38 = call noundef nonnull align 1 dereferenceable(1) ptr @_ZN5ZXing6MatrixINS_4TritEE3setEiiS1_(ptr noundef nonnull align 8 dereferenceable(32) %23, i32 noundef %26, i32 noundef %29, i8 %37)
  br label %39

39:                                               ; preds = %22
  %40 = load i32, ptr %8, align 4
  %41 = add nsw i32 %40, 1
  store i32 %41, ptr %8, align 4
  br label %19, !llvm.loop !12

42:                                               ; preds = %19
  br label %43

43:                                               ; preds = %42
  %44 = load i32, ptr %7, align 4
  %45 = add nsw i32 %44, 1
  store i32 %45, ptr %7, align 4
  br label %15, !llvm.loop !13

46:                                               ; preds = %15
  %47 = getelementptr inbounds %class.anon, ptr %13, i32 0, i32 0
  %48 = load ptr, ptr %6, align 8
  store ptr %48, ptr %47, align 8
  store i32 -1, ptr %14, align 4
  br label %49

49:                                               ; preds = %73, %46
  %50 = load i32, ptr %14, align 4
  %51 = icmp slt i32 %50, 8
  br i1 %51, label %52, label %76

52:                                               ; preds = %49
  %53 = load i32, ptr %4, align 4
  %54 = load i32, ptr %14, align 4
  %55 = add nsw i32 %53, %54
  %56 = load i32, ptr %5, align 4
  %57 = sub nsw i32 %56, 1
  call void @"_ZZN5ZXing6QRCodeL29EmbedPositionDetectionPatternEiiRNS_6MatrixINS_4TritEEEENK3$_0clEii"(ptr noundef nonnull align 8 dereferenceable(8) %13, i32 noundef %55, i32 noundef %57)
  %58 = load i32, ptr %4, align 4
  %59 = load i32, ptr %14, align 4
  %60 = add nsw i32 %58, %59
  %61 = load i32, ptr %5, align 4
  %62 = add nsw i32 %61, 7
  call void @"_ZZN5ZXing6QRCodeL29EmbedPositionDetectionPatternEiiRNS_6MatrixINS_4TritEEEENK3$_0clEii"(ptr noundef nonnull align 8 dereferenceable(8) %13, i32 noundef %60, i32 noundef %62)
  %63 = load i32, ptr %4, align 4
  %64 = sub nsw i32 %63, 1
  %65 = load i32, ptr %5, align 4
  %66 = load i32, ptr %14, align 4
  %67 = add nsw i32 %65, %66
  call void @"_ZZN5ZXing6QRCodeL29EmbedPositionDetectionPatternEiiRNS_6MatrixINS_4TritEEEENK3$_0clEii"(ptr noundef nonnull align 8 dereferenceable(8) %13, i32 noundef %64, i32 noundef %67)
  %68 = load i32, ptr %4, align 4
  %69 = add nsw i32 %68, 7
  %70 = load i32, ptr %5, align 4
  %71 = load i32, ptr %14, align 4
  %72 = add nsw i32 %70, %71
  call void @"_ZZN5ZXing6QRCodeL29EmbedPositionDetectionPatternEiiRNS_6MatrixINS_4TritEEEENK3$_0clEii"(ptr noundef nonnull align 8 dereferenceable(8) %13, i32 noundef %69, i32 noundef %72)
  br label %73

73:                                               ; preds = %52
  %74 = load i32, ptr %14, align 4
  %75 = add nsw i32 %74, 1
  store i32 %75, ptr %14, align 4
  br label %49, !llvm.loop !14

76:                                               ; preds = %49
  ret void
}