; Function Attrs: mustprogress nofree norecurse nosync nounwind memory(write, argmem: readwrite, inaccessiblemem: none) uwtable
define internal fastcc void @_ZN5ZXing6QRCodeL29EmbedPositionDetectionPatternEiiRNS_6MatrixINS_4TritEEE(i32 noundef %0, i32 noundef %1, ptr nocapture noundef nonnull readonly align 8 dereferenceable(32) %2) unnamed_addr #2 {
  %4 = getelementptr inbounds i8, ptr %2, i64 8
  br label %.preheader51

.preheader51:                                     ; preds = %3, %30
  %.02553 = phi i32 [ 0, %3 ], [ %31, %30 ]
  %5 = add nsw i32 %.02553, %1
  %6 = add nsw i32 %.02553, -3
  %7 = tail call i32 @llvm.abs.i32(i32 %6, i1 true)
  br label %17

.preheader:                                       ; preds = %30
  %8 = add nsw i32 %1, -1
  %9 = add nsw i32 %0, -1
  %10 = icmp sgt i32 %0, 0
  %11 = add nsw i32 %0, 7
  %12 = icmp sgt i32 %0, -8
  %13 = icmp sgt i32 %1, 0
  %14 = getelementptr inbounds i8, ptr %2, i64 4
  %15 = add nsw i32 %1, 7
  %16 = icmp sgt i32 %1, -8
  br label %32

17:                                               ; preds = %.preheader51, %17
  %.02652 = phi i32 [ 0, %.preheader51 ], [ %29, %17 ]
  %18 = add nsw i32 %.02652, %0
  %19 = add nsw i32 %.02652, -3
  %20 = tail call i32 @llvm.abs.i32(i32 %19, i1 true)
  %.sroa.speculated.i = tail call noundef i32 @llvm.umax.i32(i32 %20, i32 %7)
  %21 = icmp ne i32 %.sroa.speculated.i, 2
  %22 = zext i1 %21 to i8
  %23 = load i32, ptr %2, align 8
  %24 = mul nsw i32 %23, %5
  %25 = add nsw i32 %18, %24
  %26 = sext i32 %25 to i64
  %27 = load ptr, ptr %4, align 8
  %28 = getelementptr inbounds %"class.ZXing::Trit", ptr %27, i64 %26
  store i8 %22, ptr %28, align 1
  %29 = add nuw nsw i32 %.02652, 1
  %exitcond.not = icmp eq i32 %29, 7
  br i1 %exitcond.not, label %30, label %17, !llvm.loop !4

30:                                               ; preds = %17
  %31 = add nuw nsw i32 %.02553, 1
  %exitcond55.not = icmp eq i32 %31, 7
  br i1 %exitcond55.not, label %.preheader, label %.preheader51, !llvm.loop !6

32:                                               ; preds = %.preheader, %"_ZZN5ZXing6QRCodeL29EmbedPositionDetectionPatternEiiRNS_6MatrixINS_4TritEEEENK3$_0clEii.exit35"
  %.054 = phi i32 [ -1, %.preheader ], [ %81, %"_ZZN5ZXing6QRCodeL29EmbedPositionDetectionPatternEiiRNS_6MatrixINS_4TritEEEENK3$_0clEii.exit35" ]
  %33 = add nsw i32 %.054, %0
  %34 = icmp sgt i32 %33, -1
  br i1 %34, label %35, label %"_ZZN5ZXing6QRCodeL29EmbedPositionDetectionPatternEiiRNS_6MatrixINS_4TritEEEENK3$_0clEii.exit31"

35:                                               ; preds = %32
  %36 = load i32, ptr %2, align 8
  %37 = icmp sgt i32 %36, %33
  %or.cond.i = and i1 %13, %37
  %38 = load i32, ptr %14, align 4
  %39 = icmp sge i32 %38, %1
  %or.cond = select i1 %or.cond.i, i1 %39, i1 false
  br i1 %or.cond, label %40, label %46

40:                                               ; preds = %35
  %41 = mul nsw i32 %36, %8
  %42 = add nsw i32 %41, %33
  %43 = sext i32 %42 to i64
  %44 = load ptr, ptr %4, align 8
  %45 = getelementptr inbounds %"class.ZXing::Trit", ptr %44, i64 %43
  store i8 0, ptr %45, align 1
  %.pre = load i32, ptr %2, align 8
  %.pre57 = load i32, ptr %14, align 4
  br label %46

46:                                               ; preds = %35, %40
  %47 = phi i32 [ %38, %35 ], [ %.pre57, %40 ]
  %48 = phi i32 [ %36, %35 ], [ %.pre, %40 ]
  %49 = icmp sgt i32 %48, %33
  %or.cond.i30 = and i1 %16, %49
  %50 = icmp sgt i32 %47, %15
  %or.cond44 = select i1 %or.cond.i30, i1 %50, i1 false
  br i1 %or.cond44, label %51, label %"_ZZN5ZXing6QRCodeL29EmbedPositionDetectionPatternEiiRNS_6MatrixINS_4TritEEEENK3$_0clEii.exit31"

51:                                               ; preds = %46
  %52 = mul nsw i32 %48, %15
  %53 = add nsw i32 %52, %33
  %54 = sext i32 %53 to i64
  %55 = load ptr, ptr %4, align 8
  %56 = getelementptr inbounds %"class.ZXing::Trit", ptr %55, i64 %54
  store i8 0, ptr %56, align 1
  br label %"_ZZN5ZXing6QRCodeL29EmbedPositionDetectionPatternEiiRNS_6MatrixINS_4TritEEEENK3$_0clEii.exit31"

"_ZZN5ZXing6QRCodeL29EmbedPositionDetectionPatternEiiRNS_6MatrixINS_4TritEEEENK3$_0clEii.exit31": ; preds = %32, %46, %51
  %57 = add nsw i32 %.054, %1
  br i1 %10, label %58, label %"_ZZN5ZXing6QRCodeL29EmbedPositionDetectionPatternEiiRNS_6MatrixINS_4TritEEEENK3$_0clEii.exit33"

58:                                               ; preds = %"_ZZN5ZXing6QRCodeL29EmbedPositionDetectionPatternEiiRNS_6MatrixINS_4TritEEEENK3$_0clEii.exit31"
  %59 = load i32, ptr %2, align 8
  %60 = icmp sge i32 %59, %0
  %61 = icmp sgt i32 %57, -1
  %or.cond.i32 = and i1 %61, %60
  %62 = load i32, ptr %14, align 4
  %63 = icmp sgt i32 %62, %57
  %or.cond47 = select i1 %or.cond.i32, i1 %63, i1 false
  br i1 %or.cond47, label %64, label %"_ZZN5ZXing6QRCodeL29EmbedPositionDetectionPatternEiiRNS_6MatrixINS_4TritEEEENK3$_0clEii.exit33.thread"

64:                                               ; preds = %58
  %65 = mul nsw i32 %59, %57
  %66 = add nsw i32 %9, %65
  %67 = sext i32 %66 to i64
  %68 = load ptr, ptr %4, align 8
  %69 = getelementptr inbounds %"class.ZXing::Trit", ptr %68, i64 %67
  store i8 0, ptr %69, align 1
  br label %"_ZZN5ZXing6QRCodeL29EmbedPositionDetectionPatternEiiRNS_6MatrixINS_4TritEEEENK3$_0clEii.exit33.thread"

"_ZZN5ZXing6QRCodeL29EmbedPositionDetectionPatternEiiRNS_6MatrixINS_4TritEEEENK3$_0clEii.exit33": ; preds = %"_ZZN5ZXing6QRCodeL29EmbedPositionDetectionPatternEiiRNS_6MatrixINS_4TritEEEENK3$_0clEii.exit31"
  br i1 %12, label %"_ZZN5ZXing6QRCodeL29EmbedPositionDetectionPatternEiiRNS_6MatrixINS_4TritEEEENK3$_0clEii.exit33.thread", label %"_ZZN5ZXing6QRCodeL29EmbedPositionDetectionPatternEiiRNS_6MatrixINS_4TritEEEENK3$_0clEii.exit35"

"_ZZN5ZXing6QRCodeL29EmbedPositionDetectionPatternEiiRNS_6MatrixINS_4TritEEEENK3$_0clEii.exit33.thread": ; preds = %64, %58, %"_ZZN5ZXing6QRCodeL29EmbedPositionDetectionPatternEiiRNS_6MatrixINS_4TritEEEENK3$_0clEii.exit33"
  %70 = load i32, ptr %2, align 8
  %71 = icmp sgt i32 %70, %11
  %72 = icmp sgt i32 %57, -1
  %or.cond.i34 = and i1 %72, %71
  %73 = load i32, ptr %14, align 4
  %74 = icmp sgt i32 %73, %57
  %or.cond50 = select i1 %or.cond.i34, i1 %74, i1 false
  br i1 %or.cond50, label %75, label %"_ZZN5ZXing6QRCodeL29EmbedPositionDetectionPatternEiiRNS_6MatrixINS_4TritEEEENK3$_0clEii.exit35"

75:                                               ; preds = %"_ZZN5ZXing6QRCodeL29EmbedPositionDetectionPatternEiiRNS_6MatrixINS_4TritEEEENK3$_0clEii.exit33.thread"
  %76 = mul nsw i32 %70, %57
  %77 = add nsw i32 %76, %11
  %78 = sext i32 %77 to i64
  %79 = load ptr, ptr %4, align 8
  %80 = getelementptr inbounds %"class.ZXing::Trit", ptr %79, i64 %78
  store i8 0, ptr %80, align 1
  br label %"_ZZN5ZXing6QRCodeL29EmbedPositionDetectionPatternEiiRNS_6MatrixINS_4TritEEEENK3$_0clEii.exit35"

"_ZZN5ZXing6QRCodeL29EmbedPositionDetectionPatternEiiRNS_6MatrixINS_4TritEEEENK3$_0clEii.exit35": ; preds = %"_ZZN5ZXing6QRCodeL29EmbedPositionDetectionPatternEiiRNS_6MatrixINS_4TritEEEENK3$_0clEii.exit33", %"_ZZN5ZXing6QRCodeL29EmbedPositionDetectionPatternEiiRNS_6MatrixINS_4TritEEEENK3$_0clEii.exit33.thread", %75
  %81 = add nsw i32 %.054, 1
  %exitcond56.not = icmp eq i32 %81, 8
  br i1 %exitcond56.not, label %82, label %32, !llvm.loop !7

82:                                               ; preds = %"_ZZN5ZXing6QRCodeL29EmbedPositionDetectionPatternEiiRNS_6MatrixINS_4TritEEEENK3$_0clEii.exit35"
  ret void
}